target datalayout = "e-m:e-p270:32:32-p271:32:32-p272:64:64-i64:64-i128:128-f80:128-n8:16:32:64-S128"
target triple = "x86_64-pc-linux-gnu"

; Function Attrs: inlinehint nounwind uwtable
define internal zeroext i8 @clip_8b(i32 noundef %0) #4 {
  %2 = alloca i32, align 4
  store i32 %0, ptr %2, align 4, !tbaa !9
  %3 = load i32, ptr %2, align 4, !tbaa !9
  %4 = and i32 %3, -256
  %5 = icmp ne i32 %4, 0
  br i1 %5, label %8, label %6

6:                                                ; preds = %1
  %7 = load i32, ptr %2, align 4, !tbaa !9
  br label %12

8:                                                ; preds = %1
  %9 = load i32, ptr %2, align 4, !tbaa !9
  %10 = icmp slt i32 %9, 0
  %11 = select i1 %10, i32 0, i32 255
  br label %12

12:                                               ; preds = %8, %6
  %13 = phi i32 [ %7, %6 ], [ %11, %8 ]
  %14 = trunc i32 %13 to i8
  ret i8 %14
}

; Function Attrs: nounwind uwtable
define internal void @TransformAC3_C(ptr noalias noundef %0, ptr noalias noundef %1) #0 {
  %3 = alloca ptr, align 8
  %4 = alloca ptr, align 8
  %5 = alloca i32, align 4
  %6 = alloca i32, align 4
  %7 = alloca i32, align 4
  %8 = alloca i32, align 4
  %9 = alloca i32, align 4
  %10 = alloca i32, align 4
  %11 = alloca i32, align 4
  %12 = alloca i32, align 4
  %13 = alloca i32, align 4
  store ptr %0, ptr %3, align 8, !tbaa !7
  store ptr %1, ptr %4, align 8, !tbaa !16
  call void @llvm.lifetime.start.p0(i64 4, ptr %5) #7
  %14 = load ptr, ptr %3, align 8, !tbaa !7
  %15 = getelementptr inbounds i16, ptr %14, i64 0
  %16 = load i16, ptr %15, align 2, !tbaa !11
  %17 = sext i16 %16 to i32
  %18 = add nsw i32 %17, 4
  store i32 %18, ptr %5, align 4, !tbaa !9
  call void @llvm.lifetime.start.p0(i64 4, ptr %6) #7
  %19 = load ptr, ptr %3, align 8, !tbaa !7
  %20 = getelementptr inbounds i16, ptr %19, i64 4
  %21 = load i16, ptr %20, align 2, !tbaa !11
  %22 = sext i16 %21 to i32
  %23 = mul nsw i32 %22, 35468
  %24 = ashr i32 %23, 16
  store i32 %24, ptr %6, align 4, !tbaa !9
  call void @llvm.lifetime.start.p0(i64 4, ptr %7) #7
  %25 = load ptr, ptr %3, align 8, !tbaa !7
  %26 = getelementptr inbounds i16, ptr %25, i64 4
  %27 = load i16, ptr %26, align 2, !tbaa !11
  %28 = sext i16 %27 to i32
  %29 = mul nsw i32 %28, 20091
  %30 = ashr i32 %29, 16
  %31 = load ptr, ptr %3, align 8, !tbaa !7
  %32 = getelementptr inbounds i16, ptr %31, i64 4
  %33 = load i16, ptr %32, align 2, !tbaa !11
  %34 = sext i16 %33 to i32
  %35 = add nsw i32 %30, %34
  store i32 %35, ptr %7, align 4, !tbaa !9
  call void @llvm.lifetime.start.p0(i64 4, ptr %8) #7
  %36 = load ptr, ptr %3, align 8, !tbaa !7
  %37 = getelementptr inbounds i16, ptr %36, i64 1
  %38 = load i16, ptr %37, align 2, !tbaa !11
  %39 = sext i16 %38 to i32
  %40 = mul nsw i32 %39, 35468
  %41 = ashr i32 %40, 16
  store i32 %41, ptr %8, align 4, !tbaa !9
  call void @llvm.lifetime.start.p0(i64 4, ptr %9) #7
  %42 = load ptr, ptr %3, align 8, !tbaa !7
  %43 = getelementptr inbounds i16, ptr %42, i64 1
  %44 = load i16, ptr %43, align 2, !tbaa !11
  %45 = sext i16 %44 to i32
  %46 = mul nsw i32 %45, 20091
  %47 = ashr i32 %46, 16
  %48 = load ptr, ptr %3, align 8, !tbaa !7
  %49 = getelementptr inbounds i16, ptr %48, i64 1
  %50 = load i16, ptr %49, align 2, !tbaa !11
  %51 = sext i16 %50 to i32
  %52 = add nsw i32 %47, %51
  store i32 %52, ptr %9, align 4, !tbaa !9
  br label %53

53:                                               ; preds = %2
  call void @llvm.lifetime.start.p0(i64 4, ptr %10) #7
  %54 = load i32, ptr %5, align 4, !tbaa !9
  %55 = load i32, ptr %7, align 4, !tbaa !9
  %56 = add nsw i32 %54, %55
  store i32 %56, ptr %10, align 4, !tbaa !9
  %57 = load ptr, ptr %4, align 8, !tbaa !16
  %58 = getelementptr inbounds i8, ptr %57, i64 0
  %59 = load i8, ptr %58, align 1, !tbaa !18
  %60 = zext i8 %59 to i32
  %61 = load i32, ptr %10, align 4, !tbaa !9
  %62 = load i32, ptr %9, align 4, !tbaa !9
  %63 = add nsw i32 %61, %62
  %64 = ashr i32 %63, 3
  %65 = add nsw i32 %60, %64
  %66 = call zeroext i8 @clip_8b(i32 noundef %65)
  %67 = load ptr, ptr %4, align 8, !tbaa !16
  %68 = getelementptr inbounds i8, ptr %67, i64 0
  store i8 %66, ptr %68, align 1, !tbaa !18
  %69 = load ptr, ptr %4, align 8, !tbaa !16
  %70 = getelementptr inbounds i8, ptr %69, i64 1
  %71 = load i8, ptr %70, align 1, !tbaa !18
  %72 = zext i8 %71 to i32
  %73 = load i32, ptr %10, align 4, !tbaa !9
  %74 = load i32, ptr %8, align 4, !tbaa !9
  %75 = add nsw i32 %73, %74
  %76 = ashr i32 %75, 3
  %77 = add nsw i32 %72, %76
  %78 = call zeroext i8 @clip_8b(i32 noundef %77)
  %79 = load ptr, ptr %4, align 8, !tbaa !16
  %80 = getelementptr inbounds i8, ptr %79, i64 1
  store i8 %78, ptr %80, align 1, !tbaa !18
  %81 = load ptr, ptr %4, align 8, !tbaa !16
  %82 = getelementptr inbounds i8, ptr %81, i64 2
  %83 = load i8, ptr %82, align 1, !tbaa !18
  %84 = zext i8 %83 to i32
  %85 = load i32, ptr %10, align 4, !tbaa !9
  %86 = load i32, ptr %8, align 4, !tbaa !9
  %87 = sub nsw i32 %85, %86
  %88 = ashr i32 %87, 3
  %89 = add nsw i32 %84, %88
  %90 = call zeroext i8 @clip_8b(i32 noundef %89)
  %91 = load ptr, ptr %4, align 8, !tbaa !16
  %92 = getelementptr inbounds i8, ptr %91, i64 2
  store i8 %90, ptr %92, align 1, !tbaa !18
  %93 = load ptr, ptr %4, align 8, !tbaa !16
  %94 = getelementptr inbounds i8, ptr %93, i64 3
  %95 = load i8, ptr %94, align 1, !tbaa !18
  %96 = zext i8 %95 to i32
  %97 = load i32, ptr %10, align 4, !tbaa !9
  %98 = load i32, ptr %9, align 4, !tbaa !9
  %99 = sub nsw i32 %97, %98
  %100 = ashr i32 %99, 3
  %101 = add nsw i32 %96, %100
  %102 = call zeroext i8 @clip_8b(i32 noundef %101)
  %103 = load ptr, ptr %4, align 8, !tbaa !16
  %104 = getelementptr inbounds i8, ptr %103, i64 3
  store i8 %102, ptr %104, align 1, !tbaa !18
  call void @llvm.lifetime.end.p0(i64 4, ptr %10) #7
  br label %105

105:                                              ; preds = %53
  br label %106

106:                                              ; preds = %105
  br label %107

107:                                              ; preds = %106
  call void @llvm.lifetime.start.p0(i64 4, ptr %11) #7
  %108 = load i32, ptr %5, align 4, !tbaa !9
  %109 = load i32, ptr %6, align 4, !tbaa !9
  %110 = add nsw i32 %108, %109
  store i32 %110, ptr %11, align 4, !tbaa !9
  %111 = load ptr, ptr %4, align 8, !tbaa !16
  %112 = getelementptr inbounds i8, ptr %111, i64 32
  %113 = load i8, ptr %112, align 1, !tbaa !18
  %114 = zext i8 %113 to i32
  %115 = load i32, ptr %11, align 4, !tbaa !9
  %116 = load i32, ptr %9, align 4, !tbaa !9
  %117 = add nsw i32 %115, %116
  %118 = ashr i32 %117, 3
  %119 = add nsw i32 %114, %118
  %120 = call zeroext i8 @clip_8b(i32 noundef %119)
  %121 = load ptr, ptr %4, align 8, !tbaa !16
  %122 = getelementptr inbounds i8, ptr %121, i64 32
  store i8 %120, ptr %122, align 1, !tbaa !18
  %123 = load ptr, ptr %4, align 8, !tbaa !16
  %124 = getelementptr inbounds i8, ptr %123, i64 33
  %125 = load i8, ptr %124, align 1, !tbaa !18
  %126 = zext i8 %125 to i32
  %127 = load i32, ptr %11, align 4, !tbaa !9
  %128 = load i32, ptr %8, align 4, !tbaa !9
  %129 = add nsw i32 %127, %128
  %130 = ashr i32 %129, 3
  %131 = add nsw i32 %126, %130
  %132 = call zeroext i8 @clip_8b(i32 noundef %131)
  %133 = load ptr, ptr %4, align 8, !tbaa !16
  %134 = getelementptr inbounds i8, ptr %133, i64 33
  store i8 %132, ptr %134, align 1, !tbaa !18
  %135 = load ptr, ptr %4, align 8, !tbaa !16
  %136 = getelementptr inbounds i8, ptr %135, i64 34
  %137 = load i8, ptr %136, align 1, !tbaa !18
  %138 = zext i8 %137 to i32
  %139 = load i32, ptr %11, align 4, !tbaa !9
  %140 = load i32, ptr %8, align 4, !tbaa !9
  %141 = sub nsw i32 %139, %140
  %142 = ashr i32 %141, 3
  %143 = add nsw i32 %138, %142
  %144 = call zeroext i8 @clip_8b(i32 noundef %143)
  %145 = load ptr, ptr %4, align 8, !tbaa !16
  %146 = getelementptr inbounds i8, ptr %145, i64 34
  store i8 %144, ptr %146, align 1, !tbaa !18
  %147 = load ptr, ptr %4, align 8, !tbaa !16
  %148 = getelementptr inbounds i8, ptr %147, i64 35
  %149 = load i8, ptr %148, align 1, !tbaa !18
  %150 = zext i8 %149 to i32
  %151 = load i32, ptr %11, align 4, !tbaa !9
  %152 = load i32, ptr %9, align 4, !tbaa !9
  %153 = sub nsw i32 %151, %152
  %154 = ashr i32 %153, 3
  %155 = add nsw i32 %150, %154
  %156 = call zeroext i8 @clip_8b(i32 noundef %155)
  %157 = load ptr, ptr %4, align 8, !tbaa !16
  %158 = getelementptr inbounds i8, ptr %157, i64 35
  store i8 %156, ptr %158, align 1, !tbaa !18
  call void @llvm.lifetime.end.p0(i64 4, ptr %11) #7
  br label %159

159:                                              ; preds = %107
  br label %160

160:                                              ; preds = %159
  br label %161

161:                                              ; preds = %160
  call void @llvm.lifetime.start.p0(i64 4, ptr %12) #7
  %162 = load i32, ptr %5, align 4, !tbaa !9
  %163 = load i32, ptr %6, align 4, !tbaa !9
  %164 = sub nsw i32 %162, %163
  store i32 %164, ptr %12, align 4, !tbaa !9
  %165 = load ptr, ptr %4, align 8, !tbaa !16
  %166 = getelementptr inbounds i8, ptr %165, i64 64
  %167 = load i8, ptr %166, align 1, !tbaa !18
  %168 = zext i8 %167 to i32
  %169 = load i32, ptr %12, align 4, !tbaa !9
  %170 = load i32, ptr %9, align 4, !tbaa !9
  %171 = add nsw i32 %169, %170
  %172 = ashr i32 %171, 3
  %173 = add nsw i32 %168, %172
  %174 = call zeroext i8 @clip_8b(i32 noundef %173)
  %175 = load ptr, ptr %4, align 8, !tbaa !16
  %176 = getelementptr inbounds i8, ptr %175, i64 64
  store i8 %174, ptr %176, align 1, !tbaa !18
  %177 = load ptr, ptr %4, align 8, !tbaa !16
  %178 = getelementptr inbounds i8, ptr %177, i64 65
  %179 = load i8, ptr %178, align 1, !tbaa !18
  %180 = zext i8 %179 to i32
  %181 = load i32, ptr %12, align 4, !tbaa !9
  %182 = load i32, ptr %8, align 4, !tbaa !9
  %183 = add nsw i32 %181, %182
  %184 = ashr i32 %183, 3
  %185 = add nsw i32 %180, %184
  %186 = call zeroext i8 @clip_8b(i32 noundef %185)
  %187 = load ptr, ptr %4, align 8, !tbaa !16
  %188 = getelementptr inbounds i8, ptr %187, i64 65
  store i8 %186, ptr %188, align 1, !tbaa !18
  %189 = load ptr, ptr %4, align 8, !tbaa !16
  %190 = getelementptr inbounds i8, ptr %189, i64 66
  %191 = load i8, ptr %190, align 1, !tbaa !18
  %192 = zext i8 %191 to i32
  %193 = load i32, ptr %12, align 4, !tbaa !9
  %194 = load i32, ptr %8, align 4, !tbaa !9
  %195 = sub nsw i32 %193, %194
  %196 = ashr i32 %195, 3
  %197 = add nsw i32 %192, %196
  %198 = call zeroext i8 @clip_8b(i32 noundef %197)
  %199 = load ptr, ptr %4, align 8, !tbaa !16
  %200 = getelementptr inbounds i8, ptr %199, i64 66
  store i8 %198, ptr %200, align 1, !tbaa !18
  %201 = load ptr, ptr %4, align 8, !tbaa !16
  %202 = getelementptr inbounds i8, ptr %201, i64 67
  %203 = load i8, ptr %202, align 1, !tbaa !18
  %204 = zext i8 %203 to i32
  %205 = load i32, ptr %12, align 4, !tbaa !9
  %206 = load i32, ptr %9, align 4, !tbaa !9
  %207 = sub nsw i32 %205, %206
  %208 = ashr i32 %207, 3
  %209 = add nsw i32 %204, %208
  %210 = call zeroext i8 @clip_8b(i32 noundef %209)
  %211 = load ptr, ptr %4, align 8, !tbaa !16
  %212 = getelementptr inbounds i8, ptr %211, i64 67
  store i8 %210, ptr %212, align 1, !tbaa !18
  call void @llvm.lifetime.end.p0(i64 4, ptr %12) #7
  br label %213

213:                                              ; preds = %161
  br label %214

214:                                              ; preds = %213
  br label %215

215:                                              ; preds = %214
  call void @llvm.lifetime.start.p0(i64 4, ptr %13) #7
  %216 = load i32, ptr %5, align 4, !tbaa !9
  %217 = load i32, ptr %7, align 4, !tbaa !9
  %218 = sub nsw i32 %216, %217
  store i32 %218, ptr %13, align 4, !tbaa !9
  %219 = load ptr, ptr %4, align 8, !tbaa !16
  %220 = getelementptr inbounds i8, ptr %219, i64 96
  %221 = load i8, ptr %220, align 1, !tbaa !18
  %222 = zext i8 %221 to i32
  %223 = load i32, ptr %13, align 4, !tbaa !9
  %224 = load i32, ptr %9, align 4, !tbaa !9
  %225 = add nsw i32 %223, %224
  %226 = ashr i32 %225, 3
  %227 = add nsw i32 %222, %226
  %228 = call zeroext i8 @clip_8b(i32 noundef %227)
  %229 = load ptr, ptr %4, align 8, !tbaa !16
  %230 = getelementptr inbounds i8, ptr %229, i64 96
  store i8 %228, ptr %230, align 1, !tbaa !18
  %231 = load ptr, ptr %4, align 8, !tbaa !16
  %232 = getelementptr inbounds i8, ptr %231, i64 97
  %233 = load i8, ptr %232, align 1, !tbaa !18
  %234 = zext i8 %233 to i32
  %235 = load i32, ptr %13, align 4, !tbaa !9
  %236 = load i32, ptr %8, align 4, !tbaa !9
  %237 = add nsw i32 %235, %236
  %238 = ashr i32 %237, 3
  %239 = add nsw i32 %234, %238
  %240 = call zeroext i8 @clip_8b(i32 noundef %239)
  %241 = load ptr, ptr %4, align 8, !tbaa !16
  %242 = getelementptr inbounds i8, ptr %241, i64 97
  store i8 %240, ptr %242, align 1, !tbaa !18
  %243 = load ptr, ptr %4, align 8, !tbaa !16
  %244 = getelementptr inbounds i8, ptr %243, i64 98
  %245 = load i8, ptr %244, align 1, !tbaa !18
  %246 = zext i8 %245 to i32
  %247 = load i32, ptr %13, align 4, !tbaa !9
  %248 = load i32, ptr %8, align 4, !tbaa !9
  %249 = sub nsw i32 %247, %248
  %250 = ashr i32 %249, 3
  %251 = add nsw i32 %246, %250
  %252 = call zeroext i8 @clip_8b(i32 noundef %251)
  %253 = load ptr, ptr %4, align 8, !tbaa !16
  %254 = getelementptr inbounds i8, ptr %253, i64 98
  store i8 %252, ptr %254, align 1, !tbaa !18
  %255 = load ptr, ptr %4, align 8, !tbaa !16
  %256 = getelementptr inbounds i8, ptr %255, i64 99
  %257 = load i8, ptr %256, align 1, !tbaa !18
  %258 = zext i8 %257 to i32
  %259 = load i32, ptr %13, align 4, !tbaa !9
  %260 = load i32, ptr %9, align 4, !tbaa !9
  %261 = sub nsw i32 %259, %260
  %262 = ashr i32 %261, 3
  %263 = add nsw i32 %258, %262
  %264 = call zeroext i8 @clip_8b(i32 noundef %263)
  %265 = load ptr, ptr %4, align 8, !tbaa !16
  %266 = getelementptr inbounds i8, ptr %265, i64 99
  store i8 %264, ptr %266, align 1, !tbaa !18
  call void @llvm.lifetime.end.p0(i64 4, ptr %13) #7
  br label %267

267:                                              ; preds = %215
  br label %268

268:                                              ; preds = %267
  call void @llvm.lifetime.end.p0(i64 4, ptr %9) #7
  call void @llvm.lifetime.end.p0(i64 4, ptr %8) #7
  call void @llvm.lifetime.end.p0(i64 4, ptr %7) #7
  call void @llvm.lifetime.end.p0(i64 4, ptr %6) #7
  call void @llvm.lifetime.end.p0(i64 4, ptr %5) #7
  ret void
}