; Function Attrs: mustprogress nofree norecurse nosync nounwind willreturn memory(argmem: readwrite) uwtable
define internal void @TransformAC3_C(ptr noalias noundef readonly captures(none) %0, ptr noalias noundef captures(none) %1) #4 {
  %3 = load i16, ptr %0, align 2, !tbaa !7
  %4 = sext i16 %3 to i32
  %5 = add nsw i32 %4, 4
  %6 = getelementptr inbounds nuw i8, ptr %0, i64 8
  %7 = load i16, ptr %6, align 2, !tbaa !7
  %8 = sext i16 %7 to i32
  %9 = mul nsw i32 %8, 35468
  %10 = ashr i32 %9, 16
  %11 = mul nsw i32 %8, 20091
  %12 = ashr i32 %11, 16
  %13 = add nsw i32 %12, %8
  %14 = getelementptr inbounds nuw i8, ptr %0, i64 2
  %15 = load i16, ptr %14, align 2, !tbaa !7
  %16 = sext i16 %15 to i32
  %17 = mul nsw i32 %16, 35468
  %18 = ashr i32 %17, 16
  %19 = mul nsw i32 %16, 20091
  %20 = ashr i32 %19, 16
  %21 = add nsw i32 %20, %16
  %22 = add nsw i32 %13, %5
  %23 = load i8, ptr %1, align 1, !tbaa !14
  %24 = zext i8 %23 to i32
  %25 = add nsw i32 %22, %21
  %26 = ashr i32 %25, 3
  %27 = add nsw i32 %26, %24
  %28 = tail call i32 @llvm.smax.i32(i32 range(i32 -268435456, 268435711) %27, i32 0)
  %29 = tail call i32 @llvm.umin.i32(i32 %28, i32 255)
  %30 = trunc nuw i32 %29 to i8
  store i8 %30, ptr %1, align 1, !tbaa !14
  %31 = getelementptr inbounds nuw i8, ptr %1, i64 1
  %32 = load i8, ptr %31, align 1, !tbaa !14
  %33 = zext i8 %32 to i32
  %34 = add nsw i32 %22, %18
  %35 = ashr i32 %34, 3
  %36 = add nsw i32 %35, %33
  %37 = tail call i32 @llvm.smax.i32(i32 range(i32 -268435456, 268435711) %36, i32 0)
  %38 = tail call i32 @llvm.umin.i32(i32 %37, i32 255)
  %39 = trunc nuw i32 %38 to i8
  store i8 %39, ptr %31, align 1, !tbaa !14
  %40 = getelementptr inbounds nuw i8, ptr %1, i64 2
  %41 = load i8, ptr %40, align 1, !tbaa !14
  %42 = zext i8 %41 to i32
  %43 = sub nsw i32 %22, %18
  %44 = ashr i32 %43, 3
  %45 = add nsw i32 %44, %42
  %46 = tail call i32 @llvm.smax.i32(i32 range(i32 -268435456, 268435711) %45, i32 0)
  %47 = tail call i32 @llvm.umin.i32(i32 %46, i32 255)
  %48 = trunc nuw i32 %47 to i8
  store i8 %48, ptr %40, align 1, !tbaa !14
  %49 = getelementptr inbounds nuw i8, ptr %1, i64 3
  %50 = load i8, ptr %49, align 1, !tbaa !14
  %51 = zext i8 %50 to i32
  %52 = sub nsw i32 %22, %21
  %53 = ashr i32 %52, 3
  %54 = add nsw i32 %53, %51
  %55 = tail call i32 @llvm.smax.i32(i32 range(i32 -268435456, 268435711) %54, i32 0)
  %56 = tail call i32 @llvm.umin.i32(i32 %55, i32 255)
  %57 = trunc nuw i32 %56 to i8
  store i8 %57, ptr %49, align 1, !tbaa !14
  %58 = add nsw i32 %10, %5
  %59 = getelementptr inbounds nuw i8, ptr %1, i64 32
  %60 = load i8, ptr %59, align 1, !tbaa !14
  %61 = zext i8 %60 to i32
  %62 = add nsw i32 %21, %58
  %63 = ashr i32 %62, 3
  %64 = add nsw i32 %63, %61
  %65 = tail call i32 @llvm.smax.i32(i32 range(i32 -268435456, 268435711) %64, i32 0)
  %66 = tail call i32 @llvm.umin.i32(i32 %65, i32 255)
  %67 = trunc nuw i32 %66 to i8
  store i8 %67, ptr %59, align 1, !tbaa !14
  %68 = getelementptr inbounds nuw i8, ptr %1, i64 33
  %69 = load i8, ptr %68, align 1, !tbaa !14
  %70 = zext i8 %69 to i32
  %71 = add nsw i32 %58, %18
  %72 = ashr i32 %71, 3
  %73 = add nsw i32 %72, %70
  %74 = tail call i32 @llvm.smax.i32(i32 range(i32 -268435456, 268435711) %73, i32 0)
  %75 = tail call i32 @llvm.umin.i32(i32 %74, i32 255)
  %76 = trunc nuw i32 %75 to i8
  store i8 %76, ptr %68, align 1, !tbaa !14
  %77 = getelementptr inbounds nuw i8, ptr %1, i64 34
  %78 = load i8, ptr %77, align 1, !tbaa !14
  %79 = zext i8 %78 to i32
  %80 = sub nsw i32 %58, %18
  %81 = ashr i32 %80, 3
  %82 = add nsw i32 %81, %79
  %83 = tail call i32 @llvm.smax.i32(i32 range(i32 -268435456, 268435711) %82, i32 0)
  %84 = tail call i32 @llvm.umin.i32(i32 %83, i32 255)
  %85 = trunc nuw i32 %84 to i8
  store i8 %85, ptr %77, align 1, !tbaa !14
  %86 = getelementptr inbounds nuw i8, ptr %1, i64 35
  %87 = load i8, ptr %86, align 1, !tbaa !14
  %88 = zext i8 %87 to i32
  %89 = sub nsw i32 %58, %21
  %90 = ashr i32 %89, 3
  %91 = add nsw i32 %90, %88
  %92 = tail call i32 @llvm.smax.i32(i32 range(i32 -268435456, 268435711) %91, i32 0)
  %93 = tail call i32 @llvm.umin.i32(i32 %92, i32 255)
  %94 = trunc nuw i32 %93 to i8
  store i8 %94, ptr %86, align 1, !tbaa !14
  %95 = sub nsw i32 %5, %10
  %96 = getelementptr inbounds nuw i8, ptr %1, i64 64
  %97 = load i8, ptr %96, align 1, !tbaa !14
  %98 = zext i8 %97 to i32
  %99 = add nsw i32 %21, %95
  %100 = ashr i32 %99, 3
  %101 = add nsw i32 %100, %98
  %102 = tail call i32 @llvm.smax.i32(i32 range(i32 -268435456, 268435711) %101, i32 0)
  %103 = tail call i32 @llvm.umin.i32(i32 %102, i32 255)
  %104 = trunc nuw i32 %103 to i8
  store i8 %104, ptr %96, align 1, !tbaa !14
  %105 = getelementptr inbounds nuw i8, ptr %1, i64 65
  %106 = load i8, ptr %105, align 1, !tbaa !14
  %107 = zext i8 %106 to i32
  %108 = add nsw i32 %95, %18
  %109 = ashr i32 %108, 3
  %110 = add nsw i32 %109, %107
  %111 = tail call i32 @llvm.smax.i32(i32 range(i32 -268435456, 268435711) %110, i32 0)
  %112 = tail call i32 @llvm.umin.i32(i32 %111, i32 255)
  %113 = trunc nuw i32 %112 to i8
  store i8 %113, ptr %105, align 1, !tbaa !14
  %114 = getelementptr inbounds nuw i8, ptr %1, i64 66
  %115 = load i8, ptr %114, align 1, !tbaa !14
  %116 = zext i8 %115 to i32
  %117 = sub nsw i32 %95, %18
  %118 = ashr i32 %117, 3
  %119 = add nsw i32 %118, %116
  %120 = tail call i32 @llvm.smax.i32(i32 range(i32 -268435456, 268435711) %119, i32 0)
  %121 = tail call i32 @llvm.umin.i32(i32 %120, i32 255)
  %122 = trunc nuw i32 %121 to i8
  store i8 %122, ptr %114, align 1, !tbaa !14
  %123 = getelementptr inbounds nuw i8, ptr %1, i64 67
  %124 = load i8, ptr %123, align 1, !tbaa !14
  %125 = zext i8 %124 to i32
  %126 = sub nsw i32 %95, %21
  %127 = ashr i32 %126, 3
  %128 = add nsw i32 %127, %125
  %129 = tail call i32 @llvm.smax.i32(i32 range(i32 -268435456, 268435711) %128, i32 0)
  %130 = tail call i32 @llvm.umin.i32(i32 %129, i32 255)
  %131 = trunc nuw i32 %130 to i8
  store i8 %131, ptr %123, align 1, !tbaa !14
  %132 = sub nsw i32 %5, %13
  %133 = getelementptr inbounds nuw i8, ptr %1, i64 96
  %134 = load i8, ptr %133, align 1, !tbaa !14
  %135 = zext i8 %134 to i32
  %136 = add nsw i32 %132, %21
  %137 = ashr i32 %136, 3
  %138 = add nsw i32 %137, %135
  %139 = tail call i32 @llvm.smax.i32(i32 range(i32 -268435456, 268435711) %138, i32 0)
  %140 = tail call i32 @llvm.umin.i32(i32 %139, i32 255)
  %141 = trunc nuw i32 %140 to i8
  store i8 %141, ptr %133, align 1, !tbaa !14
  %142 = getelementptr inbounds nuw i8, ptr %1, i64 97
  %143 = load i8, ptr %142, align 1, !tbaa !14
  %144 = zext i8 %143 to i32
  %145 = add nsw i32 %132, %18
  %146 = ashr i32 %145, 3
  %147 = add nsw i32 %146, %144
  %148 = tail call i32 @llvm.smax.i32(i32 range(i32 -268435456, 268435711) %147, i32 0)
  %149 = tail call i32 @llvm.umin.i32(i32 %148, i32 255)
  %150 = trunc nuw i32 %149 to i8
  store i8 %150, ptr %142, align 1, !tbaa !14
  %151 = getelementptr inbounds nuw i8, ptr %1, i64 98
  %152 = load i8, ptr %151, align 1, !tbaa !14
  %153 = zext i8 %152 to i32
  %154 = sub nsw i32 %132, %18
  %155 = ashr i32 %154, 3
  %156 = add nsw i32 %155, %153
  %157 = tail call i32 @llvm.smax.i32(i32 range(i32 -268435456, 268435711) %156, i32 0)
  %158 = tail call i32 @llvm.umin.i32(i32 %157, i32 255)
  %159 = trunc nuw i32 %158 to i8
  store i8 %159, ptr %151, align 1, !tbaa !14
  %160 = getelementptr inbounds nuw i8, ptr %1, i64 99
  %161 = load i8, ptr %160, align 1, !tbaa !14
  %162 = zext i8 %161 to i32
  %163 = sub nsw i32 %132, %21
  %164 = ashr i32 %163, 3
  %165 = add nsw i32 %164, %162
  %166 = tail call i32 @llvm.smax.i32(i32 range(i32 -268435456, 268435711) %165, i32 0)
  %167 = tail call i32 @llvm.umin.i32(i32 %166, i32 255)
  %168 = trunc nuw i32 %167 to i8
  store i8 %168, ptr %160, align 1, !tbaa !14
  ret void
}